target datalayout = "e-m:e-p270:32:32-p271:32:32-p272:64:64-i64:64-i128:128-f80:128-n8:16:32:64-S128"
target triple = "x86_64-unknown-linux-gnu"

%"struct.hermes::vm::RootSectionAcceptor" = type { ptr }
%"class.std::__cxx11::basic_string" = type { %"struct.std::__cxx11::basic_string<char>::_Alloc_hider", i64, %union.anon }
%"struct.std::__cxx11::basic_string<char>::_Alloc_hider" = type { ptr }
%union.anon = type { i64, [8 x i8] }
%"class.std::allocator.2" = type { i8 }
%"class.hermes::vm::SymbolID" = type { i32 }
%struct.HeapSizeDiagnosticAcceptor = type { %"struct.hermes::vm::RootAndSlotAcceptor", i64, i64, i64, i64, i64, i64, i64, i64, %struct.HeapSizeDiagnostic, ptr }
%"struct.hermes::vm::RootAndSlotAcceptor" = type { %"struct.hermes::vm::RootAcceptor", %"struct.hermes::vm::SlotAcceptor" }
%"struct.hermes::vm::RootAcceptor" = type { %"struct.hermes::vm::RootSectionAcceptor" }
%"struct.hermes::vm::SlotAcceptor" = type { ptr }
%struct.HeapSizeDiagnostic = type { i64, i64, %struct.DiagnosticStat }
%struct.DiagnosticStat = type { i64, i64, %"class.std::map" }
%"class.std::map" = type { %"class.std::_Rb_tree" }
%"class.std::_Rb_tree" = type { %"struct.std::_Rb_tree<std::__cxx11::basic_string<char>, std::pair<const std::__cxx11::basic_string<char>, DiagnosticStat>, std::_Select1st<std::pair<const std::__cxx11::basic_string<char>, DiagnosticStat>>, std::less<std::__cxx11::basic_string<char>>>::_Rb_tree_impl" }
%"struct.std::_Rb_tree<std::__cxx11::basic_string<char>, std::pair<const std::__cxx11::basic_string<char>, DiagnosticStat>, std::_Select1st<std::pair<const std::__cxx11::basic_string<char>, DiagnosticStat>>, std::less<std::__cxx11::basic_string<char>>>::_Rb_tree_impl" = type { %"struct.std::_Rb_tree_key_compare", %"struct.std::_Rb_tree_header" }
%"struct.std::_Rb_tree_key_compare" = type { %"struct.std::less" }
%"struct.std::less" = type { i8 }
%"struct.std::_Rb_tree_header" = type { %"struct.std::_Rb_tree_node_base", i64 }
%"struct.std::_Rb_tree_node_base" = type { i32, ptr, ptr, ptr }

@.str.62 = private unnamed_addr constant [50 x i8] c"basic_string: construction from null is not valid\00", align 1
@.str.73 = private unnamed_addr constant [7 x i8] c"Symbol\00", align 1

; Function Attrs: mustprogress nounwind uwtable
define linkonce_odr noundef i64 @_ZNSt11char_traitsIcE6lengthEPKc(ptr noundef %__s) #0 comdat align 2 {
entry:
  %__s.addr = alloca ptr, align 8
  store ptr %__s, ptr %__s.addr, align 8
  %0 = load ptr, ptr %__s.addr, align 8
  %call = call i64 @strlen(ptr noundef %0) #14
  ret i64 %call
}

; Function Attrs: mustprogress nounwind uwtable
define linkonce_odr void @_ZNSt7__cxx1112basic_stringIcSt11char_traitsIcESaIcEEC2IS3_EEPKcRKS3_(ptr noundef nonnull align 8 dereferenceable(32) %this, ptr noundef %__s, ptr noundef nonnull align 1 dereferenceable(1) %__a) unnamed_addr #0 comdat align 2 {
entry:
  %this.addr = alloca ptr, align 8
  %__s.addr = alloca ptr, align 8
  %__a.addr = alloca ptr, align 8
  %__end = alloca ptr, align 8
  store ptr %this, ptr %this.addr, align 8
  store ptr %__s, ptr %__s.addr, align 8
  store ptr %__a, ptr %__a.addr, align 8
  %this1 = load ptr, ptr %this.addr, align 8
  %_M_dataplus = getelementptr inbounds %"class.std::__cxx11::basic_string", ptr %this1, i32 0, i32 0
  %call = call noundef ptr @_ZNSt7__cxx1112basic_stringIcSt11char_traitsIcESaIcEE13_M_local_dataEv(ptr noundef nonnull align 8 dereferenceable(32) %this1)
  %0 = load ptr, ptr %__a.addr, align 8
  call void @_ZNSt7__cxx1112basic_stringIcSt11char_traitsIcESaIcEE12_Alloc_hiderC1EPcRKS3_(ptr noundef nonnull align 8 dereferenceable(8) %_M_dataplus, ptr noundef %call, ptr noundef nonnull align 1 dereferenceable(1) %0)
  %1 = load ptr, ptr %__s.addr, align 8
  %cmp = icmp eq ptr %1, null
  br i1 %cmp, label %if.then, label %if.end

if.then:                                          ; preds = %entry
  call void @_ZSt19__throw_logic_errorPKc(ptr noundef @.str.62) #15
  unreachable

if.end:                                           ; preds = %entry
  %2 = load ptr, ptr %__s.addr, align 8
  %3 = load ptr, ptr %__s.addr, align 8
  %call2 = call noundef i64 @_ZNSt11char_traitsIcE6lengthEPKc(ptr noundef %3)
  %add.ptr = getelementptr inbounds i8, ptr %2, i64 %call2
  store ptr %add.ptr, ptr %__end, align 8
  %4 = load ptr, ptr %__s.addr, align 8
  %5 = load ptr, ptr %__end, align 8
  call void @_ZNSt7__cxx1112basic_stringIcSt11char_traitsIcESaIcEE12_M_constructIPKcEEvT_S8_St20forward_iterator_tag(ptr noundef nonnull align 8 dereferenceable(32) %this1, ptr noundef %4, ptr noundef %5)
  ret void
}

; Function Attrs: mustprogress nounwind uwtable
define internal void @_ZZN6hermes2vm6GCBase20sizeDiagnosticCensusEmEN26HeapSizeDiagnosticAcceptor9acceptSymENS0_8SymbolIDE(ptr noundef nonnull align 8 dereferenceable(168) %this, i32 %sym.coerce) #0 align 2 {
entry:
  %sym = alloca %"class.hermes::vm::SymbolID", align 4
  %this.addr = alloca ptr, align 8
  %ref.tmp = alloca %"class.std::__cxx11::basic_string", align 8
  %ref.tmp2 = alloca %"class.std::allocator.2", align 1
  %ref.tmp6 = alloca %"class.std::__cxx11::basic_string", align 8
  %ref.tmp7 = alloca %"class.std::allocator.2", align 1
  %coerce.dive = getelementptr inbounds %"class.hermes::vm::SymbolID", ptr %sym, i32 0, i32 0
  store i32 %sym.coerce, ptr %coerce.dive, align 4
  store ptr %this, ptr %this.addr, align 8
  %this1 = load ptr, ptr %this.addr, align 8
  %diagnostic = getelementptr inbounds %struct.HeapSizeDiagnosticAcceptor, ptr %this1, i32 0, i32 9
  %stats = getelementptr inbounds %struct.HeapSizeDiagnostic, ptr %diagnostic, i32 0, i32 2
  %breakdown = getelementptr inbounds %struct.DiagnosticStat, ptr %stats, i32 0, i32 2
  call void @_ZNSaIcEC1Ev(ptr noundef nonnull align 1 dereferenceable(1) %ref.tmp2) #14
  call void @_ZNSt7__cxx1112basic_stringIcSt11char_traitsIcESaIcEEC2IS3_EEPKcRKS3_(ptr noundef nonnull align 8 dereferenceable(32) %ref.tmp, ptr noundef @.str.73, ptr noundef nonnull align 1 dereferenceable(1) %ref.tmp2)
  %call = call noundef nonnull align 8 dereferenceable(64) ptr @_ZNSt3mapINSt7__cxx1112basic_stringIcSt11char_traitsIcESaIcEEEZN6hermes2vm6GCBase20sizeDiagnosticCensusEmE14DiagnosticStatSt4lessIS5_ESaISt4pairIKS5_S9_EEEixEOS5_(ptr noundef nonnull align 8 dereferenceable(48) %breakdown, ptr noundef nonnull align 8 dereferenceable(32) %ref.tmp)
  %count = getelementptr inbounds %struct.DiagnosticStat, ptr %call, i32 0, i32 0
  %0 = load i64, ptr %count, align 8
  %inc = add i64 %0, 1
  store i64 %inc, ptr %count, align 8
  call void @_ZNSt7__cxx1112basic_stringIcSt11char_traitsIcESaIcEED1Ev(ptr noundef nonnull align 8 dereferenceable(32) %ref.tmp) #14
  call void @_ZNSaIcED1Ev(ptr noundef nonnull align 1 dereferenceable(1) %ref.tmp2) #14
  %diagnostic3 = getelementptr inbounds %struct.HeapSizeDiagnosticAcceptor, ptr %this1, i32 0, i32 9
  %stats4 = getelementptr inbounds %struct.HeapSizeDiagnostic, ptr %diagnostic3, i32 0, i32 2
  %breakdown5 = getelementptr inbounds %struct.DiagnosticStat, ptr %stats4, i32 0, i32 2
  call void @_ZNSaIcEC1Ev(ptr noundef nonnull align 1 dereferenceable(1) %ref.tmp7) #14
  call void @_ZNSt7__cxx1112basic_stringIcSt11char_traitsIcESaIcEEC2IS3_EEPKcRKS3_(ptr noundef nonnull align 8 dereferenceable(32) %ref.tmp6, ptr noundef @.str.73, ptr noundef nonnull align 1 dereferenceable(1) %ref.tmp7)
  %call8 = call noundef nonnull align 8 dereferenceable(64) ptr @_ZNSt3mapINSt7__cxx1112basic_stringIcSt11char_traitsIcESaIcEEEZN6hermes2vm6GCBase20sizeDiagnosticCensusEmE14DiagnosticStatSt4lessIS5_ESaISt4pairIKS5_S9_EEEixEOS5_(ptr noundef nonnull align 8 dereferenceable(48) %breakdown5, ptr noundef nonnull align 8 dereferenceable(32) %ref.tmp6)
  %size = getelementptr inbounds %struct.DiagnosticStat, ptr %call8, i32 0, i32 1
  %1 = load i64, ptr %size, align 8
  %add = add i64 %1, 4
  store i64 %add, ptr %size, align 8
  call void @_ZNSt7__cxx1112basic_stringIcSt11char_traitsIcESaIcEED1Ev(ptr noundef nonnull align 8 dereferenceable(32) %ref.tmp6) #14
  call void @_ZNSaIcED1Ev(ptr noundef nonnull align 1 dereferenceable(1) %ref.tmp7) #14
  ret void
}